target datalayout = "e-m:e-p270:32:32-p271:32:32-p272:64:64-i64:64-i128:128-f80:128-n8:16:32:64-S128"
target triple = "x86_64-pc-linux-gnu"

%struct.AVFormatContext = type { ptr, ptr, ptr, ptr, ptr, i32, i32, ptr, i32, ptr, i32, ptr, ptr, i64, i64, i64, i32, i32, i32, i64, i64, ptr, i32, i32, ptr, i32, i32, i32, i32, ptr, i64, i32, i32, %struct.AVIOInterruptCB, i32, i32, i32, i32, i64, i32, i32, i32, i32, i32, i32, i32, i32, i32, i32, i32, i32, i64, i32, i32, i32, i32, i32, ptr, ptr, ptr, ptr, i32, ptr, ptr, ptr, ptr, i32, ptr, ptr, i64, ptr, ptr, ptr, i64 }
%struct.AVIOInterruptCB = type { ptr, ptr }
%struct.ogg = type { ptr, i32, i32, i32, i64, ptr }
%struct.ogg_stream = type { ptr, i32, i32, i32, i32, i32, i32, i32, i64, i64, i64, i64, i64, i64, i32, ptr, i32, i32, i32, [255 x i8], i32, i32, i32, i32, i32, i32, i32, i32, ptr, i64, ptr }
%struct.AVStream = type { ptr, i32, i32, ptr, ptr, %struct.AVRational, i64, i64, i64, i32, i32, %struct.AVRational, ptr, %struct.AVRational, %struct.AVPacket, i32, %struct.AVRational, i32 }
%struct.AVPacket = type { ptr, i64, i64, ptr, i32, i32, i32, ptr, i32, i64, i64, ptr, ptr, %struct.AVRational }
%struct.AVRational = type { i32, i32 }
%struct.AVCodecParameters = type { i32, i32, i32, ptr, i32, ptr, i32, i32, i64, i32, i32, i32, i32, i32, i32, %struct.AVRational, %struct.AVRational, i32, i32, i32, i32, i32, i32, i32, %struct.AVChannelLayout, i32, i32, i32, i32, i32, i32 }
%struct.AVChannelLayout = type { i32, i32, %union.anon, ptr }
%union.anon = type { i64 }
%struct.AVDiracSeqHeader = type { i32, i32, i8, i8, i8, i8, i8, i16, i16, i16, i16, i8, i8, i32, i32, %struct.AVRational, %struct.AVRational, i32, i32, i32, i32, i32, %struct.DiracVersionInfo, i32 }
%struct.DiracVersionInfo = type { i32, i32 }

; Function Attrs: nounwind uwtable
define internal i32 @dirac_header(ptr noundef %0, i32 noundef %1) #0 {
  %3 = alloca i32, align 4
  %4 = alloca ptr, align 8
  %5 = alloca i32, align 4
  %6 = alloca ptr, align 8
  %7 = alloca ptr, align 8
  %8 = alloca ptr, align 8
  %9 = alloca ptr, align 8
  %10 = alloca i32, align 4
  %11 = alloca i32, align 4
  store ptr %0, ptr %4, align 8, !tbaa !4
  store i32 %1, ptr %5, align 4, !tbaa !9
  call void @llvm.lifetime.start.p0(i64 8, ptr %6) #5
  %12 = load ptr, ptr %4, align 8, !tbaa !4
  %13 = getelementptr inbounds nuw %struct.AVFormatContext, ptr %12, i32 0, i32 3
  %14 = load ptr, ptr %13, align 8, !tbaa !11
  store ptr %14, ptr %6, align 8, !tbaa !27
  call void @llvm.lifetime.start.p0(i64 8, ptr %7) #5
  %15 = load ptr, ptr %6, align 8, !tbaa !27
  %16 = getelementptr inbounds nuw %struct.ogg, ptr %15, i32 0, i32 0
  %17 = load ptr, ptr %16, align 8, !tbaa !29
  %18 = load i32, ptr %5, align 4, !tbaa !9
  %19 = sext i32 %18 to i64
  %20 = getelementptr inbounds %struct.ogg_stream, ptr %17, i64 %19
  store ptr %20, ptr %7, align 8, !tbaa !33
  call void @llvm.lifetime.start.p0(i64 8, ptr %8) #5
  %21 = load ptr, ptr %4, align 8, !tbaa !4
  %22 = getelementptr inbounds nuw %struct.AVFormatContext, ptr %21, i32 0, i32 7
  %23 = load ptr, ptr %22, align 8, !tbaa !34
  %24 = load i32, ptr %5, align 4, !tbaa !9
  %25 = sext i32 %24 to i64
  %26 = getelementptr inbounds ptr, ptr %23, i64 %25
  %27 = load ptr, ptr %26, align 8, !tbaa !35
  store ptr %27, ptr %8, align 8, !tbaa !35
  call void @llvm.lifetime.start.p0(i64 8, ptr %9) #5
  call void @llvm.lifetime.start.p0(i64 4, ptr %10) #5
  %28 = load ptr, ptr %8, align 8, !tbaa !35
  %29 = getelementptr inbounds nuw %struct.AVStream, ptr %28, i32 0, i32 3
  %30 = load ptr, ptr %29, align 8, !tbaa !37
  %31 = getelementptr inbounds nuw %struct.AVCodecParameters, ptr %30, i32 0, i32 1
  %32 = load i32, ptr %31, align 4, !tbaa !44
  %33 = icmp eq i32 %32, 116
  br i1 %33, label %34, label %35

34:                                               ; preds = %2
  store i32 0, ptr %3, align 4
  store i32 1, ptr %11, align 4
  br label %159

35:                                               ; preds = %2
  %36 = load ptr, ptr %7, align 8, !tbaa !33
  %37 = getelementptr inbounds nuw %struct.ogg_stream, ptr %36, i32 0, i32 0
  %38 = load ptr, ptr %37, align 8, !tbaa !47
  %39 = load ptr, ptr %7, align 8, !tbaa !33
  %40 = getelementptr inbounds nuw %struct.ogg_stream, ptr %39, i32 0, i32 3
  %41 = load i32, ptr %40, align 8, !tbaa !50
  %42 = zext i32 %41 to i64
  %43 = getelementptr inbounds nuw i8, ptr %38, i64 %42
  %44 = getelementptr inbounds i8, ptr %43, i64 13
  %45 = load ptr, ptr %7, align 8, !tbaa !33
  %46 = getelementptr inbounds nuw %struct.ogg_stream, ptr %45, i32 0, i32 4
  %47 = load i32, ptr %46, align 4, !tbaa !51
  %48 = sub i32 %47, 13
  %49 = zext i32 %48 to i64
  %50 = load ptr, ptr %4, align 8, !tbaa !4
  %51 = call i32 @av_dirac_parse_sequence_header(ptr noundef %9, ptr noundef %44, i64 noundef %49, ptr noundef %50)
  store i32 %51, ptr %10, align 4, !tbaa !9
  %52 = load i32, ptr %10, align 4, !tbaa !9
  %53 = icmp slt i32 %52, 0
  br i1 %53, label %54, label %56

54:                                               ; preds = %35
  %55 = load i32, ptr %10, align 4, !tbaa !9
  store i32 %55, ptr %3, align 4
  store i32 1, ptr %11, align 4
  br label %159

56:                                               ; preds = %35
  %57 = load ptr, ptr %8, align 8, !tbaa !35
  %58 = getelementptr inbounds nuw %struct.AVStream, ptr %57, i32 0, i32 3
  %59 = load ptr, ptr %58, align 8, !tbaa !37
  %60 = getelementptr inbounds nuw %struct.AVCodecParameters, ptr %59, i32 0, i32 0
  store i32 0, ptr %60, align 8, !tbaa !52
  %61 = load ptr, ptr %8, align 8, !tbaa !35
  %62 = getelementptr inbounds nuw %struct.AVStream, ptr %61, i32 0, i32 3
  %63 = load ptr, ptr %62, align 8, !tbaa !37
  %64 = getelementptr inbounds nuw %struct.AVCodecParameters, ptr %63, i32 0, i32 1
  store i32 116, ptr %64, align 4, !tbaa !44
  %65 = load ptr, ptr %9, align 8, !tbaa !53
  %66 = getelementptr inbounds nuw %struct.AVDiracSeqHeader, ptr %65, i32 0, i32 0
  %67 = load i32, ptr %66, align 4, !tbaa !55
  %68 = load ptr, ptr %8, align 8, !tbaa !35
  %69 = getelementptr inbounds nuw %struct.AVStream, ptr %68, i32 0, i32 3
  %70 = load ptr, ptr %69, align 8, !tbaa !37
  %71 = getelementptr inbounds nuw %struct.AVCodecParameters, ptr %70, i32 0, i32 13
  store i32 %67, ptr %71, align 8, !tbaa !59
  %72 = load ptr, ptr %9, align 8, !tbaa !53
  %73 = getelementptr inbounds nuw %struct.AVDiracSeqHeader, ptr %72, i32 0, i32 1
  %74 = load i32, ptr %73, align 4, !tbaa !60
  %75 = load ptr, ptr %8, align 8, !tbaa !35
  %76 = getelementptr inbounds nuw %struct.AVStream, ptr %75, i32 0, i32 3
  %77 = load ptr, ptr %76, align 8, !tbaa !37
  %78 = getelementptr inbounds nuw %struct.AVCodecParameters, ptr %77, i32 0, i32 14
  store i32 %74, ptr %78, align 4, !tbaa !61
  %79 = load ptr, ptr %9, align 8, !tbaa !53
  %80 = getelementptr inbounds nuw %struct.AVDiracSeqHeader, ptr %79, i32 0, i32 17
  %81 = load i32, ptr %80, align 4, !tbaa !62
  %82 = load ptr, ptr %8, align 8, !tbaa !35
  %83 = getelementptr inbounds nuw %struct.AVStream, ptr %82, i32 0, i32 3
  %84 = load ptr, ptr %83, align 8, !tbaa !37
  %85 = getelementptr inbounds nuw %struct.AVCodecParameters, ptr %84, i32 0, i32 7
  store i32 %81, ptr %85, align 4, !tbaa !63
  %86 = load ptr, ptr %9, align 8, !tbaa !53
  %87 = getelementptr inbounds nuw %struct.AVDiracSeqHeader, ptr %86, i32 0, i32 18
  %88 = load i32, ptr %87, align 4, !tbaa !64
  %89 = load ptr, ptr %8, align 8, !tbaa !35
  %90 = getelementptr inbounds nuw %struct.AVStream, ptr %89, i32 0, i32 3
  %91 = load ptr, ptr %90, align 8, !tbaa !37
  %92 = getelementptr inbounds nuw %struct.AVCodecParameters, ptr %91, i32 0, i32 18
  store i32 %88, ptr %92, align 4, !tbaa !65
  %93 = load ptr, ptr %9, align 8, !tbaa !53
  %94 = getelementptr inbounds nuw %struct.AVDiracSeqHeader, ptr %93, i32 0, i32 20
  %95 = load i32, ptr %94, align 4, !tbaa !66
  %96 = load ptr, ptr %8, align 8, !tbaa !35
  %97 = getelementptr inbounds nuw %struct.AVStream, ptr %96, i32 0, i32 3
  %98 = load ptr, ptr %97, align 8, !tbaa !37
  %99 = getelementptr inbounds nuw %struct.AVCodecParameters, ptr %98, i32 0, i32 20
  store i32 %95, ptr %99, align 4, !tbaa !67
  %100 = load ptr, ptr %9, align 8, !tbaa !53
  %101 = getelementptr inbounds nuw %struct.AVDiracSeqHeader, ptr %100, i32 0, i32 19
  %102 = load i32, ptr %101, align 4, !tbaa !68
  %103 = load ptr, ptr %8, align 8, !tbaa !35
  %104 = getelementptr inbounds nuw %struct.AVStream, ptr %103, i32 0, i32 3
  %105 = load ptr, ptr %104, align 8, !tbaa !37
  %106 = getelementptr inbounds nuw %struct.AVCodecParameters, ptr %105, i32 0, i32 19
  store i32 %102, ptr %106, align 8, !tbaa !69
  %107 = load ptr, ptr %9, align 8, !tbaa !53
  %108 = getelementptr inbounds nuw %struct.AVDiracSeqHeader, ptr %107, i32 0, i32 21
  %109 = load i32, ptr %108, align 4, !tbaa !70
  %110 = load ptr, ptr %8, align 8, !tbaa !35
  %111 = getelementptr inbounds nuw %struct.AVStream, ptr %110, i32 0, i32 3
  %112 = load ptr, ptr %111, align 8, !tbaa !37
  %113 = getelementptr inbounds nuw %struct.AVCodecParameters, ptr %112, i32 0, i32 21
  store i32 %109, ptr %113, align 8, !tbaa !71
  %114 = load ptr, ptr %9, align 8, !tbaa !53
  %115 = getelementptr inbounds nuw %struct.AVDiracSeqHeader, ptr %114, i32 0, i32 13
  %116 = load i32, ptr %115, align 4, !tbaa !72
  %117 = load ptr, ptr %8, align 8, !tbaa !35
  %118 = getelementptr inbounds nuw %struct.AVStream, ptr %117, i32 0, i32 3
  %119 = load ptr, ptr %118, align 8, !tbaa !37
  %120 = getelementptr inbounds nuw %struct.AVCodecParameters, ptr %119, i32 0, i32 11
  store i32 %116, ptr %120, align 8, !tbaa !73
  %121 = load ptr, ptr %9, align 8, !tbaa !53
  %122 = getelementptr inbounds nuw %struct.AVDiracSeqHeader, ptr %121, i32 0, i32 14
  %123 = load i32, ptr %122, align 4, !tbaa !74
  %124 = load ptr, ptr %8, align 8, !tbaa !35
  %125 = getelementptr inbounds nuw %struct.AVStream, ptr %124, i32 0, i32 3
  %126 = load ptr, ptr %125, align 8, !tbaa !37
  %127 = getelementptr inbounds nuw %struct.AVCodecParameters, ptr %126, i32 0, i32 12
  store i32 %123, ptr %127, align 4, !tbaa !75
  %128 = load ptr, ptr %8, align 8, !tbaa !35
  %129 = getelementptr inbounds nuw %struct.AVStream, ptr %128, i32 0, i32 3
  %130 = load ptr, ptr %129, align 8, !tbaa !37
  %131 = getelementptr inbounds nuw %struct.AVCodecParameters, ptr %130, i32 0, i32 13
  %132 = load i32, ptr %131, align 8, !tbaa !59
  %133 = load ptr, ptr %8, align 8, !tbaa !35
  %134 = getelementptr inbounds nuw %struct.AVStream, ptr %133, i32 0, i32 3
  %135 = load ptr, ptr %134, align 8, !tbaa !37
  %136 = getelementptr inbounds nuw %struct.AVCodecParameters, ptr %135, i32 0, i32 14
  %137 = load i32, ptr %136, align 4, !tbaa !61
  %138 = load ptr, ptr %9, align 8, !tbaa !53
  %139 = getelementptr inbounds nuw %struct.AVDiracSeqHeader, ptr %138, i32 0, i32 16
  %140 = load i64, ptr %139, align 4
  %141 = call i32 @av_image_check_sar(i32 noundef %132, i32 noundef %137, i64 %140)
  %142 = icmp sge i32 %141, 0
  br i1 %142, label %143, label %148

143:                                              ; preds = %56
  %144 = load ptr, ptr %8, align 8, !tbaa !35
  %145 = getelementptr inbounds nuw %struct.AVStream, ptr %144, i32 0, i32 11
  %146 = load ptr, ptr %9, align 8, !tbaa !53
  %147 = getelementptr inbounds nuw %struct.AVDiracSeqHeader, ptr %146, i32 0, i32 16
  call void @llvm.memcpy.p0.p0.i64(ptr align 8 %145, ptr align 4 %147, i64 8, i1 false), !tbaa.struct !76
  br label %148

148:                                              ; preds = %143, %56
  %149 = load ptr, ptr %8, align 8, !tbaa !35
  %150 = load ptr, ptr %9, align 8, !tbaa !53
  %151 = getelementptr inbounds nuw %struct.AVDiracSeqHeader, ptr %150, i32 0, i32 15
  %152 = getelementptr inbounds nuw %struct.AVRational, ptr %151, i32 0, i32 1
  %153 = load i32, ptr %152, align 4, !tbaa !77
  %154 = load ptr, ptr %9, align 8, !tbaa !53
  %155 = getelementptr inbounds nuw %struct.AVDiracSeqHeader, ptr %154, i32 0, i32 15
  %156 = getelementptr inbounds nuw %struct.AVRational, ptr %155, i32 0, i32 0
  %157 = load i32, ptr %156, align 4, !tbaa !78
  %158 = mul nsw i32 2, %157
  call void @avpriv_set_pts_info(ptr noundef %149, i32 noundef 64, i32 noundef %153, i32 noundef %158)
  call void @av_freep(ptr noundef %9)
  store i32 1, ptr %3, align 4
  store i32 1, ptr %11, align 4
  br label %159

159:                                              ; preds = %148, %54, %34
  call void @llvm.lifetime.end.p0(i64 4, ptr %10) #5
  call void @llvm.lifetime.end.p0(i64 8, ptr %9) #5
  call void @llvm.lifetime.end.p0(i64 8, ptr %8) #5
  call void @llvm.lifetime.end.p0(i64 8, ptr %7) #5
  call void @llvm.lifetime.end.p0(i64 8, ptr %6) #5
  %160 = load i32, ptr %3, align 4
  ret i32 %160
}