; Function Attrs: nounwind uwtable
define internal range(i32 -2147483648, 2) i32 @dirac_header(ptr noundef %0, i32 noundef %1) #0 {
  %3 = alloca ptr, align 8
  %4 = getelementptr inbounds nuw i8, ptr %0, i64 24
  %5 = load ptr, ptr %4, align 8, !tbaa !4
  %6 = load ptr, ptr %5, align 8, !tbaa !24
  %7 = sext i32 %1 to i64
  %8 = getelementptr inbounds nuw i8, ptr %0, i64 48
  %9 = load ptr, ptr %8, align 8, !tbaa !28
  %10 = getelementptr inbounds ptr, ptr %9, i64 %7
  %11 = load ptr, ptr %10, align 8, !tbaa !29
  call void @llvm.lifetime.start.p0(i64 8, ptr nonnull %3) #5
  %12 = getelementptr inbounds nuw i8, ptr %11, i64 16
  %13 = load ptr, ptr %12, align 8, !tbaa !31
  %14 = getelementptr inbounds nuw i8, ptr %13, i64 4
  %15 = load i32, ptr %14, align 4, !tbaa !38
  %16 = icmp eq i32 %15, 116
  br i1 %16, label %75, label %17

17:                                               ; preds = %2
  %18 = getelementptr inbounds %struct.ogg_stream, ptr %6, i64 %7
  %19 = load ptr, ptr %18, align 8, !tbaa !41
  %20 = getelementptr inbounds nuw i8, ptr %18, i64 16
  %21 = load i32, ptr %20, align 8, !tbaa !44
  %22 = zext i32 %21 to i64
  %23 = getelementptr inbounds nuw i8, ptr %19, i64 %22
  %24 = getelementptr inbounds nuw i8, ptr %23, i64 13
  %25 = getelementptr inbounds nuw i8, ptr %18, i64 20
  %26 = load i32, ptr %25, align 4, !tbaa !45
  %27 = add i32 %26, -13
  %28 = zext i32 %27 to i64
  %29 = call i32 @av_dirac_parse_sequence_header(ptr noundef nonnull %3, ptr noundef nonnull %24, i64 noundef %28, ptr noundef nonnull %0) #5
  %30 = icmp slt i32 %29, 0
  br i1 %30, label %75, label %31

31:                                               ; preds = %17
  %32 = load ptr, ptr %12, align 8, !tbaa !31
  store i32 0, ptr %32, align 8, !tbaa !46
  %33 = getelementptr inbounds nuw i8, ptr %32, i64 4
  store i32 116, ptr %33, align 4, !tbaa !38
  %34 = load ptr, ptr %3, align 8, !tbaa !47
  %35 = load i32, ptr %34, align 4, !tbaa !49
  %36 = getelementptr inbounds nuw i8, ptr %32, i64 72
  store i32 %35, ptr %36, align 8, !tbaa !53
  %37 = getelementptr inbounds nuw i8, ptr %34, i64 4
  %38 = load i32, ptr %37, align 4, !tbaa !54
  %39 = getelementptr inbounds nuw i8, ptr %32, i64 76
  store i32 %38, ptr %39, align 4, !tbaa !55
  %40 = getelementptr inbounds nuw i8, ptr %34, i64 48
  %41 = load i32, ptr %40, align 4, !tbaa !56
  %42 = getelementptr inbounds nuw i8, ptr %32, i64 44
  store i32 %41, ptr %42, align 4, !tbaa !57
  %43 = getelementptr inbounds nuw i8, ptr %34, i64 52
  %44 = load i32, ptr %43, align 4, !tbaa !58
  %45 = getelementptr inbounds nuw i8, ptr %32, i64 100
  store i32 %44, ptr %45, align 4, !tbaa !59
  %46 = getelementptr inbounds nuw i8, ptr %34, i64 60
  %47 = load i32, ptr %46, align 4, !tbaa !60
  %48 = getelementptr inbounds nuw i8, ptr %32, i64 108
  store i32 %47, ptr %48, align 4, !tbaa !61
  %49 = getelementptr inbounds nuw i8, ptr %34, i64 56
  %50 = load i32, ptr %49, align 4, !tbaa !62
  %51 = getelementptr inbounds nuw i8, ptr %32, i64 104
  store i32 %50, ptr %51, align 8, !tbaa !63
  %52 = getelementptr inbounds nuw i8, ptr %34, i64 64
  %53 = load i32, ptr %52, align 4, !tbaa !64
  %54 = getelementptr inbounds nuw i8, ptr %32, i64 112
  store i32 %53, ptr %54, align 8, !tbaa !65
  %55 = getelementptr inbounds nuw i8, ptr %34, i64 24
  %56 = load i32, ptr %55, align 4, !tbaa !66
  %57 = getelementptr inbounds nuw i8, ptr %32, i64 64
  store i32 %56, ptr %57, align 8, !tbaa !67
  %58 = getelementptr inbounds nuw i8, ptr %34, i64 28
  %59 = load i32, ptr %58, align 4, !tbaa !68
  %60 = getelementptr inbounds nuw i8, ptr %32, i64 68
  store i32 %59, ptr %60, align 4, !tbaa !69
  %61 = getelementptr inbounds nuw i8, ptr %34, i64 40
  %62 = load i64, ptr %61, align 4
  %63 = call i32 @av_image_check_sar(i32 noundef %35, i32 noundef %38, i64 %62) #5
  %64 = icmp sgt i32 %63, -1
  %.pre = load ptr, ptr %3, align 8, !tbaa !47
  br i1 %64, label %65, label %69

65:                                               ; preds = %31
  %66 = getelementptr inbounds nuw i8, ptr %11, i64 72
  %67 = getelementptr inbounds nuw i8, ptr %.pre, i64 40
  %68 = load i64, ptr %67, align 4
  store i64 %68, ptr %66, align 8
  br label %69

69:                                               ; preds = %65, %31
  %70 = getelementptr inbounds nuw i8, ptr %.pre, i64 32
  %71 = getelementptr inbounds nuw i8, ptr %.pre, i64 36
  %72 = load i32, ptr %71, align 4, !tbaa !70
  %73 = load i32, ptr %70, align 4, !tbaa !71
  %74 = shl nsw i32 %73, 1
  call void @avpriv_set_pts_info(ptr noundef nonnull %11, i32 noundef 64, i32 noundef %72, i32 noundef %74) #5
  call void @av_freep(ptr noundef nonnull %3) #5
  br label %75

75:                                               ; preds = %17, %2, %69
  %.0 = phi i32 [ 1, %69 ], [ 0, %2 ], [ %29, %17 ]
  call void @llvm.lifetime.end.p0(i64 8, ptr nonnull %3) #5
  ret i32 %.0
}